target datalayout = "e-m:e-p270:32:32-p271:32:32-p272:64:64-i64:64-i128:128-f80:128-n8:16:32:64-S128"
target triple = "x86_64-pc-linux-gnu"

%class.LogDecorators = type { i32 }
%class.LogTagSet = type { ptr, i64, [5 x i32], [4 x i8], %class.LogOutputList, %class.LogDecorators, ptr }
%class.LogOutputList = type <{ [6 x ptr], i32, [4 x i8] }>
%class.outputStream = type { ptr, i32, i8, i32, i64, %class.TimeStamp, ptr, i64 }
%class.TimeStamp = type { i64 }
%class.LogOutput = type <{ ptr, i8, [7 x i8], %class.stringStream, %class.LogDecorators, [4 x i8] }>
%class.stringStream = type <{ %class.outputStream, ptr, i64, i64, i8, [48 x i8], [7 x i8] }>
%"struct.LogOutputList::LogOutputNode" = type <{ ptr, ptr, i32, [4 x i8] }>

@_ZN16LogConfiguration8_outputsE = hidden global ptr null, align 8
@_ZN16LogConfiguration10_n_outputsE = hidden global i64 0, align 8
@_ZN13LogDecorators4NoneE = external global %class.LogDecorators, align 4
@_ZN9LogTagSet5_listE = external global ptr, align 8

; Function Attrs: mustprogress nounwind uwtable
define linkonce_odr hidden noundef i32 @_ZNK13LogOutputList9level_forEPK9LogOutput(ptr noundef nonnull align 8 dereferenceable(52) %0, ptr noundef %1) #1 comdat align 2 {
  %3 = alloca i32, align 4
  %4 = alloca ptr, align 8
  %5 = alloca ptr, align 8
  %6 = alloca ptr, align 8
  store ptr %0, ptr %4, align 8
  store ptr %1, ptr %5, align 8
  %7 = load ptr, ptr %4, align 8
  %8 = load ptr, ptr %5, align 8
  %9 = call noundef ptr @_ZNK13LogOutputList4findEPK9LogOutput(ptr noundef nonnull align 8 dereferenceable(52) %7, ptr noundef %8)
  store ptr %9, ptr %6, align 8
  %10 = load ptr, ptr %6, align 8
  %11 = icmp eq ptr %10, null
  br i1 %11, label %12, label %13

12:                                               ; preds = %2
  store i32 0, ptr %3, align 4
  br label %17

13:                                               ; preds = %2
  %14 = load ptr, ptr %6, align 8
  %15 = getelementptr inbounds %"struct.LogOutputList::LogOutputNode", ptr %14, i32 0, i32 2
  %16 = load i32, ptr %15, align 8
  store i32 %16, ptr %3, align 4
  br label %17

17:                                               ; preds = %13, %12
  %18 = load i32, ptr %3, align 4
  ret i32 %18
}

; Function Attrs: mustprogress nounwind uwtable
define hidden void @_ZN16LogConfiguration13delete_outputEm(i64 noundef %0) #1 align 2 {
  %2 = alloca i64, align 8
  %3 = alloca ptr, align 8
  store i64 %0, ptr %2, align 8
  %4 = load ptr, ptr @_ZN16LogConfiguration8_outputsE, align 8
  %5 = load i64, ptr %2, align 8
  %6 = getelementptr inbounds ptr, ptr %4, i64 %5
  %7 = load ptr, ptr %6, align 8
  store ptr %7, ptr %3, align 8
  %8 = load ptr, ptr @_ZN16LogConfiguration8_outputsE, align 8
  %9 = load i64, ptr @_ZN16LogConfiguration10_n_outputsE, align 8
  %10 = add i64 %9, -1
  store i64 %10, ptr @_ZN16LogConfiguration10_n_outputsE, align 8
  %11 = getelementptr inbounds ptr, ptr %8, i64 %10
  %12 = load ptr, ptr %11, align 8
  %13 = load ptr, ptr @_ZN16LogConfiguration8_outputsE, align 8
  %14 = load i64, ptr %2, align 8
  %15 = getelementptr inbounds ptr, ptr %13, i64 %14
  store ptr %12, ptr %15, align 8
  %16 = load ptr, ptr @_ZN16LogConfiguration8_outputsE, align 8
  %17 = load i64, ptr @_ZN16LogConfiguration10_n_outputsE, align 8
  %18 = mul i64 %17, 8
  %19 = call noundef ptr @_Z14ReallocateHeapPcm8MEMFLAGSN17AllocFailStrategy13AllocFailEnumE(ptr noundef %16, i64 noundef %18, i8 noundef zeroext 17, i32 noundef 0)
  store ptr %19, ptr @_ZN16LogConfiguration8_outputsE, align 8
  %20 = load ptr, ptr %3, align 8
  %21 = icmp eq ptr %20, null
  br i1 %21, label %26, label %22

22:                                               ; preds = %1
  %23 = load ptr, ptr %20, align 8
  %24 = getelementptr inbounds ptr, ptr %23, i64 1
  %25 = load ptr, ptr %24, align 8
  call void %25(ptr noundef nonnull align 8 dereferenceable(156) %20) #2
  br label %26

26:                                               ; preds = %22, %1
  ret void
}

; Function Attrs: mustprogress nounwind uwtable
define linkonce_odr hidden void @_ZN9LogOutput14set_decoratorsERK13LogDecorators(ptr noundef nonnull align 8 dereferenceable(156) %0, ptr noundef nonnull align 4 dereferenceable(4) %1) #1 comdat align 2 {
  %3 = alloca ptr, align 8
  %4 = alloca ptr, align 8
  store ptr %0, ptr %3, align 8
  store ptr %1, ptr %4, align 8
  %5 = load ptr, ptr %3, align 8
  %6 = load ptr, ptr %4, align 8
  %7 = getelementptr inbounds %class.LogOutput, ptr %5, i32 0, i32 4
  call void @llvm.memcpy.p0.p0.i64(ptr align 8 %7, ptr align 4 %6, i64 4, i1 false)
  ret void
}

; Function Attrs: mustprogress nounwind uwtable
define linkonce_odr hidden noundef ptr @_ZN9LogTagSet4nextEv(ptr noundef nonnull align 8 dereferenceable(112) %0) #1 comdat align 2 {
  %2 = alloca ptr, align 8
  store ptr %0, ptr %2, align 8
  %3 = load ptr, ptr %2, align 8
  %4 = getelementptr inbounds %class.LogTagSet, ptr %3, i32 0, i32 0
  %5 = load ptr, ptr %4, align 8
  ret ptr %5
}

; Function Attrs: mustprogress nounwind uwtable
define linkonce_odr hidden noundef i32 @_ZNK9LogTagSet9level_forEPK9LogOutput(ptr noundef nonnull align 8 dereferenceable(112) %0, ptr noundef %1) #1 comdat align 2 {
  %3 = alloca ptr, align 8
  %4 = alloca ptr, align 8
  store ptr %0, ptr %3, align 8
  store ptr %1, ptr %4, align 8
  %5 = load ptr, ptr %3, align 8
  %6 = getelementptr inbounds %class.LogTagSet, ptr %5, i32 0, i32 4
  %7 = load ptr, ptr %4, align 8
  %8 = call noundef i32 @_ZNK13LogOutputList9level_forEPK9LogOutput(ptr noundef nonnull align 8 dereferenceable(52) %6, ptr noundef %7)
  ret i32 %8
}

; Function Attrs: mustprogress nounwind uwtable
define linkonce_odr hidden void @_ZN9LogTagSet16set_output_levelEP9LogOutputN8LogLevel4typeE(ptr noundef nonnull align 8 dereferenceable(112) %0, ptr noundef %1, i32 noundef %2) #1 comdat align 2 {
  %4 = alloca ptr, align 8
  %5 = alloca ptr, align 8
  %6 = alloca i32, align 4
  store ptr %0, ptr %4, align 8
  store ptr %1, ptr %5, align 8
  store i32 %2, ptr %6, align 4
  %7 = load ptr, ptr %4, align 8
  %8 = getelementptr inbounds %class.LogTagSet, ptr %7, i32 0, i32 4
  %9 = load ptr, ptr %5, align 8
  %10 = load i32, ptr %6, align 4
  call void @_ZN13LogOutputList16set_output_levelEP9LogOutputN8LogLevel4typeE(ptr noundef nonnull align 8 dereferenceable(52) %8, ptr noundef %9, i32 noundef %10)
  ret void
}

; Function Attrs: mustprogress nounwind uwtable
define linkonce_odr hidden noundef ptr @_ZN9LogTagSet5firstEv() #1 comdat align 2 {
  %1 = load ptr, ptr @_ZN9LogTagSet5_listE, align 8
  ret ptr %1
}

; Function Attrs: mustprogress nounwind uwtable
define hidden void @_ZN16LogConfiguration16configure_outputEmRK16LogSelectionListRK13LogDecorators(i64 noundef %0, ptr noundef nonnull align 8 dereferenceable(15368) %1, ptr noundef nonnull align 4 dereferenceable(4) %2) #1 align 2 {
  %4 = alloca i64, align 8
  %5 = alloca ptr, align 8
  %6 = alloca ptr, align 8
  %7 = alloca ptr, align 8
  %8 = alloca [6 x i64], align 16
  %9 = alloca i8, align 1
  %10 = alloca ptr, align 8
  %11 = alloca i32, align 4
  %12 = alloca ptr, align 8
  store i64 %0, ptr %4, align 8
  store ptr %1, ptr %5, align 8
  store ptr %2, ptr %6, align 8
  %13 = load ptr, ptr @_ZN16LogConfiguration8_outputsE, align 8
  %14 = load i64, ptr %4, align 8
  %15 = getelementptr inbounds ptr, ptr %13, i64 %14
  %16 = load ptr, ptr %15, align 8
  store ptr %16, ptr %7, align 8
  %17 = load ptr, ptr %7, align 8
  %18 = getelementptr inbounds %class.LogOutput, ptr %17, i32 0, i32 1
  store i8 1, ptr %18, align 8
  call void @llvm.memset.p0.i64(ptr align 16 %8, i8 0, i64 48, i1 false)
  store i8 0, ptr %9, align 1
  %19 = call noundef ptr @_ZN9LogTagSet5firstEv()
  store ptr %19, ptr %10, align 8
  br label %20

20:                                               ; preds = %67, %3
  %21 = load ptr, ptr %10, align 8
  %22 = icmp ne ptr %21, null
  br i1 %22, label %23, label %70

23:                                               ; preds = %20
  %24 = load ptr, ptr %5, align 8
  %25 = load ptr, ptr %10, align 8
  %26 = call noundef i32 @_ZNK16LogSelectionList9level_forERK9LogTagSet(ptr noundef nonnull align 8 dereferenceable(15368) %24, ptr noundef nonnull align 8 dereferenceable(112) %25)
  store i32 %26, ptr %11, align 4
  %27 = load ptr, ptr %10, align 8
  %28 = load ptr, ptr %7, align 8
  %29 = call noundef zeroext i1 @_ZN9LogTagSet10has_outputEPK9LogOutput(ptr noundef nonnull align 8 dereferenceable(112) %27, ptr noundef %28)
  br i1 %29, label %40, label %30

30:                                               ; preds = %23
  %31 = load i32, ptr %11, align 4
  %32 = icmp eq i32 %31, 8
  br i1 %32, label %36, label %33

33:                                               ; preds = %30
  %34 = load i32, ptr %11, align 4
  %35 = icmp eq i32 %34, 0
  br i1 %35, label %36, label %40

36:                                               ; preds = %33, %30
  %37 = getelementptr inbounds [6 x i64], ptr %8, i64 0, i64 0
  %38 = load i64, ptr %37, align 16
  %39 = add i64 %38, 1
  store i64 %39, ptr %37, align 16
  br label %67

40:                                               ; preds = %33, %23
  %41 = load i32, ptr %11, align 4
  %42 = icmp ne i32 %41, 0
  br i1 %42, label %43, label %46

43:                                               ; preds = %40
  %44 = load ptr, ptr %10, align 8
  %45 = load ptr, ptr %6, align 8
  call void @_ZN9LogTagSet17update_decoratorsERK13LogDecorators(ptr noundef nonnull align 8 dereferenceable(112) %44, ptr noundef nonnull align 4 dereferenceable(4) %45)
  br label %46

46:                                               ; preds = %43, %40
  %47 = load i32, ptr %11, align 4
  %48 = icmp ne i32 %47, 8
  br i1 %48, label %49, label %53

49:                                               ; preds = %46
  %50 = load ptr, ptr %10, align 8
  %51 = load ptr, ptr %7, align 8
  %52 = load i32, ptr %11, align 4
  call void @_ZN9LogTagSet16set_output_levelEP9LogOutputN8LogLevel4typeE(ptr noundef nonnull align 8 dereferenceable(112) %50, ptr noundef %51, i32 noundef %52)
  br label %57

53:                                               ; preds = %46
  %54 = load ptr, ptr %10, align 8
  %55 = load ptr, ptr %7, align 8
  %56 = call noundef i32 @_ZNK9LogTagSet9level_forEPK9LogOutput(ptr noundef nonnull align 8 dereferenceable(112) %54, ptr noundef %55)
  store i32 %56, ptr %11, align 4
  br label %57

57:                                               ; preds = %53, %49
  %58 = load i32, ptr %11, align 4
  %59 = icmp ne i32 %58, 0
  br i1 %59, label %60, label %61

60:                                               ; preds = %57
  store i8 1, ptr %9, align 1
  br label %61

61:                                               ; preds = %60, %57
  %62 = load i32, ptr %11, align 4
  %63 = zext i32 %62 to i64
  %64 = getelementptr inbounds [6 x i64], ptr %8, i64 0, i64 %63
  %65 = load i64, ptr %64, align 8
  %66 = add i64 %65, 1
  store i64 %66, ptr %64, align 8
  br label %67

67:                                               ; preds = %61, %36
  %68 = load ptr, ptr %10, align 8
  %69 = call noundef ptr @_ZN9LogTagSet4nextEv(ptr noundef nonnull align 8 dereferenceable(112) %68)
  store ptr %69, ptr %10, align 8
  br label %20, !llvm.loop !15

70:                                               ; preds = %20
  call void @_ZN14AsyncLogWriter5flushEv()
  %71 = load ptr, ptr %7, align 8
  %72 = load ptr, ptr %6, align 8
  call void @_ZN9LogOutput14set_decoratorsERK13LogDecorators(ptr noundef nonnull align 8 dereferenceable(156) %71, ptr noundef nonnull align 4 dereferenceable(4) %72)
  %73 = call noundef ptr @_ZN9LogTagSet5firstEv()
  store ptr %73, ptr %12, align 8
  br label %74

74:                                               ; preds = %79, %70
  %75 = load ptr, ptr %12, align 8
  %76 = icmp ne ptr %75, null
  br i1 %76, label %77, label %82

77:                                               ; preds = %74
  %78 = load ptr, ptr %12, align 8
  call void @_ZN9LogTagSet17update_decoratorsERK13LogDecorators(ptr noundef nonnull align 8 dereferenceable(112) %78, ptr noundef nonnull align 4 dereferenceable(4) @_ZN13LogDecorators4NoneE)
  br label %79

79:                                               ; preds = %77
  %80 = load ptr, ptr %12, align 8
  %81 = call noundef ptr @_ZN9LogTagSet4nextEv(ptr noundef nonnull align 8 dereferenceable(112) %80)
  store ptr %81, ptr %12, align 8
  br label %74, !llvm.loop !16

82:                                               ; preds = %74
  %83 = load i8, ptr %9, align 1
  %84 = trunc i8 %83 to i1
  br i1 %84, label %90, label %85

85:                                               ; preds = %82
  %86 = load i64, ptr %4, align 8
  %87 = icmp ugt i64 %86, 1
  br i1 %87, label %88, label %90

88:                                               ; preds = %85
  %89 = load i64, ptr %4, align 8
  call void @_ZN16LogConfiguration13delete_outputEm(i64 noundef %89)
  br label %93

90:                                               ; preds = %85, %82
  %91 = load ptr, ptr %7, align 8
  %92 = getelementptr inbounds [6 x i64], ptr %8, i64 0, i64 0
  call void @_ZN9LogOutput20update_config_stringEPKm(ptr noundef nonnull align 8 dereferenceable(156) %91, ptr noundef %92)
  br label %93

93:                                               ; preds = %90, %88
  ret void
}